#include <math.h>
#include <stdio.h>
#include <stdlib.h>
#include <string.h>
#include <iostream>
using namespace std;

/* 
 * ????main.cpp
 * ??????
 * ?????2013-01-11
 * ????????????N(N<=100)???2?N?????
 */


void f ( int n )
{
	int i,j,l,len,c[10000] = {0};
	c[0] = 1;
	len = 1;
	for ( i = 0; i < n; i++ )
	{
		l = 0;
		for ( j = 0; j < len; j++ )
		{
			c[j] = c[j] * 2 + l;
			l = 0;
			if ( c[j] > 9 )
			{
				l = (c[j] - c[j] % 10) / 10;
				c[j] -= 10;
			}
		}
		if ( l > 0 )
		{
			c[j] += l;
			len += 1;
		}
	}
	for ( i = len - 1; i >= 0; i-- )
		cout << c[i];
	cout << endl;
}

int main ()
{
	int N;
	cin >> N;
	f(N);
	return 0;
}